; Function Attrs: mustprogress nofree norecurse nosync nounwind willreturn memory(readwrite, argmem: none, inaccessiblemem: none) uwtable
define void @b2World_SetRestitutionCallback(i32 %0, ptr noundef %1) local_unnamed_addr #12 {
  %3 = and i32 %0, 65535
  %4 = zext nneg i32 %3 to i64
  %5 = getelementptr %struct.b2World, ptr @b2_worlds, i64 %4
  %6 = getelementptr i8, ptr %5, i64 -9
  %7 = load i8, ptr %6, align 1, !tbaa !35, !range !77, !noundef !78
  %8 = trunc nuw i8 %7 to i1
  br i1 %8, label %10, label %.sink.split

.sink.split:                                      ; preds = %2
  %.not = icmp eq ptr %1, null
  %9 = getelementptr i8, ptr %5, i64 -208
  %b2DefaultRestitutionCallback. = select i1 %.not, ptr @b2DefaultRestitutionCallback, ptr %1
  store ptr %b2DefaultRestitutionCallback., ptr %9, align 16, !tbaa !132
  br label %10

10:                                               ; preds = %.sink.split, %2
  ret void
}